target datalayout = "e-m:e-p270:32:32-p271:32:32-p272:64:64-i64:64-i128:128-f80:128-n8:16:32:64-S128"
target triple = "x86_64-pc-linux-gnu"

%struct.AVChannelLayout = type { i32, i32, %union.anon, ptr }
%union.anon = type { i64 }

; Function Attrs: alwaysinline nounwind willreturn memory(none) uwtable
define internal i32 @av_popcount_c(i32 noundef %0) #5 {
  %2 = alloca i32, align 4
  store i32 %0, ptr %2, align 4, !tbaa !9
  %3 = load i32, ptr %2, align 4, !tbaa !9
  %4 = lshr i32 %3, 1
  %5 = and i32 %4, 1431655765
  %6 = load i32, ptr %2, align 4, !tbaa !9
  %7 = sub i32 %6, %5
  store i32 %7, ptr %2, align 4, !tbaa !9
  %8 = load i32, ptr %2, align 4, !tbaa !9
  %9 = and i32 %8, 858993459
  %10 = load i32, ptr %2, align 4, !tbaa !9
  %11 = lshr i32 %10, 2
  %12 = and i32 %11, 858993459
  %13 = add i32 %9, %12
  store i32 %13, ptr %2, align 4, !tbaa !9
  %14 = load i32, ptr %2, align 4, !tbaa !9
  %15 = load i32, ptr %2, align 4, !tbaa !9
  %16 = lshr i32 %15, 4
  %17 = add i32 %14, %16
  %18 = and i32 %17, 252645135
  store i32 %18, ptr %2, align 4, !tbaa !9
  %19 = load i32, ptr %2, align 4, !tbaa !9
  %20 = lshr i32 %19, 8
  %21 = load i32, ptr %2, align 4, !tbaa !9
  %22 = add i32 %21, %20
  store i32 %22, ptr %2, align 4, !tbaa !9
  %23 = load i32, ptr %2, align 4, !tbaa !9
  %24 = load i32, ptr %2, align 4, !tbaa !9
  %25 = lshr i32 %24, 16
  %26 = add i32 %23, %25
  %27 = and i32 %26, 63
  ret i32 %27
}

; Function Attrs: alwaysinline nounwind willreturn memory(none) uwtable
define internal i32 @av_popcount64_c(i64 noundef %0) #5 {
  %2 = alloca i64, align 8
  store i64 %0, ptr %2, align 8, !tbaa !15
  %3 = load i64, ptr %2, align 8, !tbaa !15
  %4 = trunc i64 %3 to i32
  %5 = call i32 @av_popcount_c(i32 noundef %4) #13
  %6 = load i64, ptr %2, align 8, !tbaa !15
  %7 = lshr i64 %6, 32
  %8 = trunc i64 %7 to i32
  %9 = call i32 @av_popcount_c(i32 noundef %8) #13
  %10 = add nsw i32 %5, %9
  ret i32 %10
}

; Function Attrs: nounwind uwtable
define i32 @av_channel_layout_from_mask(ptr noundef %0, i64 noundef %1) #0 {
  %3 = alloca i32, align 4
  %4 = alloca ptr, align 8
  %5 = alloca i64, align 8
  store ptr %0, ptr %4, align 8, !tbaa !23
  store i64 %1, ptr %5, align 8, !tbaa !15
  %6 = load i64, ptr %5, align 8, !tbaa !15
  %7 = icmp ne i64 %6, 0
  br i1 %7, label %9, label %8

8:                                                ; preds = %2
  store i32 -22, ptr %3, align 4
  br label %19

9:                                                ; preds = %2
  %10 = load ptr, ptr %4, align 8, !tbaa !23
  %11 = getelementptr inbounds nuw %struct.AVChannelLayout, ptr %10, i32 0, i32 0
  store i32 1, ptr %11, align 8, !tbaa !30
  %12 = load i64, ptr %5, align 8, !tbaa !15
  %13 = call i32 @av_popcount64_c(i64 noundef %12) #13
  %14 = load ptr, ptr %4, align 8, !tbaa !23
  %15 = getelementptr inbounds nuw %struct.AVChannelLayout, ptr %14, i32 0, i32 1
  store i32 %13, ptr %15, align 4, !tbaa !32
  %16 = load i64, ptr %5, align 8, !tbaa !15
  %17 = load ptr, ptr %4, align 8, !tbaa !23
  %18 = getelementptr inbounds nuw %struct.AVChannelLayout, ptr %17, i32 0, i32 2
  store i64 %16, ptr %18, align 8, !tbaa !22
  store i32 0, ptr %3, align 4
  br label %19

19:                                               ; preds = %9, %8
  %20 = load i32, ptr %3, align 4
  ret i32 %20
}