; Function Attrs: mustprogress nofree norecurse nosync nounwind willreturn memory(argmem: write) uwtable
define range(i32 -22, 1) i32 @av_channel_layout_from_mask(ptr noundef writeonly captures(none) %0, i64 noundef %1) local_unnamed_addr #6 {
  %.not = icmp eq i64 %1, 0
  br i1 %.not, label %40, label %3

3:                                                ; preds = %2
  store i32 1, ptr %0, align 8, !tbaa !18
  %4 = trunc i64 %1 to i32
  %5 = lshr i32 %4, 1
  %6 = and i32 %5, 1431655765
  %7 = sub i32 %4, %6
  %8 = and i32 %7, 858993459
  %9 = lshr i32 %7, 2
  %10 = and i32 %9, 858993459
  %11 = add nuw nsw i32 %10, %8
  %12 = lshr i32 %11, 4
  %13 = add nuw nsw i32 %12, %11
  %14 = and i32 %13, 252645135
  %15 = lshr i32 %14, 8
  %16 = add nuw nsw i32 %15, %14
  %17 = lshr i32 %16, 16
  %18 = add nuw nsw i32 %17, %16
  %19 = and i32 %18, 63
  %20 = lshr i64 %1, 32
  %21 = trunc nuw i64 %20 to i32
  %22 = lshr i32 %21, 1
  %23 = and i32 %22, 1431655765
  %24 = sub i32 %21, %23
  %25 = and i32 %24, 858993459
  %26 = lshr i32 %24, 2
  %27 = and i32 %26, 858993459
  %28 = add nuw nsw i32 %27, %25
  %29 = lshr i32 %28, 4
  %30 = add nuw nsw i32 %29, %28
  %31 = and i32 %30, 252645135
  %32 = lshr i32 %31, 8
  %33 = add nuw nsw i32 %32, %31
  %34 = lshr i32 %33, 16
  %35 = add nuw nsw i32 %34, %33
  %36 = and i32 %35, 63
  %37 = add nuw nsw i32 %36, %19
  %38 = getelementptr inbounds nuw i8, ptr %0, i64 4
  store i32 %37, ptr %38, align 4, !tbaa !20
  %39 = getelementptr inbounds nuw i8, ptr %0, i64 8
  store i64 %1, ptr %39, align 8, !tbaa !17
  br label %40

40:                                               ; preds = %2, %3
  %.0 = phi i32 [ 0, %3 ], [ -22, %2 ]
  ret i32 %.0
}